target datalayout = "e-m:e-p270:32:32-p271:32:32-p272:64:64-i64:64-i128:128-f80:128-n8:16:32:64-S128"
target triple = "x86_64-pc-linux-gnu"

@stderr = external global ptr, align 8
@.str.222 = private unnamed_addr constant [23 x i8] c"Init allocation error\0A\00", align 1
@.str.227 = private unnamed_addr constant [13 x i8] c"program_name\00", align 1
@.str.228 = private unnamed_addr constant [13 x i8] c"./_testembed\00", align 1
@.str.233 = private unnamed_addr constant [24 x i8] c"Python init failed: %s\0A\00", align 1
@.str.279 = private unnamed_addr constant [18 x i8] c"my_test_extension\00", align 1
@.str.280 = private unnamed_addr constant [25 x i8] c"import my_test_extension\00", align 1
@.str.281 = private unnamed_addr constant [36 x i8] c"unable to import my_test_extension\0A\00", align 1

; Function Attrs: nounwind uwtable
define internal i32 @test_initconfig_module() #0 {
  %1 = alloca i32, align 4
  %2 = alloca ptr, align 8
  %3 = alloca i32, align 4
  %4 = alloca ptr, align 8
  call void @llvm.lifetime.start.p0(i64 8, ptr %2) #11
  %5 = call ptr @PyInitConfig_Create()
  store ptr %5, ptr %2, align 8, !tbaa !75
  %6 = load ptr, ptr %2, align 8, !tbaa !75
  %7 = icmp eq ptr %6, null
  br i1 %7, label %8, label %10

8:                                                ; preds = %0
  %9 = call i32 (ptr, ...) @printf(ptr noundef @.str.222)
  store i32 1, ptr %1, align 4
  store i32 1, ptr %3, align 4
  br label %38

10:                                               ; preds = %0
  %11 = load ptr, ptr %2, align 8, !tbaa !75
  %12 = call i32 @PyInitConfig_SetStr(ptr noundef %11, ptr noundef @.str.227, ptr noundef @.str.228)
  %13 = icmp slt i32 %12, 0
  br i1 %13, label %14, label %15

14:                                               ; preds = %10
  br label %33

15:                                               ; preds = %10
  %16 = load ptr, ptr %2, align 8, !tbaa !75
  %17 = call i32 @PyInitConfig_AddModule(ptr noundef %16, ptr noundef @.str.279, ptr noundef @init_my_test_extension)
  %18 = icmp slt i32 %17, 0
  br i1 %18, label %19, label %20

19:                                               ; preds = %15
  br label %33

20:                                               ; preds = %15
  %21 = load ptr, ptr %2, align 8, !tbaa !75
  %22 = call i32 @Py_InitializeFromInitConfig(ptr noundef %21)
  %23 = icmp slt i32 %22, 0
  br i1 %23, label %24, label %25

24:                                               ; preds = %20
  br label %33

25:                                               ; preds = %20
  %26 = load ptr, ptr %2, align 8, !tbaa !75
  call void @PyInitConfig_Free(ptr noundef %26)
  %27 = call i32 @PyRun_SimpleStringFlags(ptr noundef @.str.280, ptr noundef null)
  %28 = icmp slt i32 %27, 0
  br i1 %28, label %29, label %32

29:                                               ; preds = %25
  %30 = load ptr, ptr @stderr, align 8, !tbaa !21
  %31 = call i32 (ptr, ptr, ...) @fprintf(ptr noundef %30, ptr noundef @.str.281) #11
  call void @exit(i32 noundef 1) #13
  unreachable

32:                                               ; preds = %25
  call void @Py_Finalize()
  store i32 0, ptr %1, align 4
  store i32 1, ptr %3, align 4
  br label %38

33:                                               ; preds = %24, %19, %14
  call void @llvm.lifetime.start.p0(i64 8, ptr %4) #11
  %34 = load ptr, ptr %2, align 8, !tbaa !75
  %35 = call i32 @PyInitConfig_GetError(ptr noundef %34, ptr noundef %4)
  %36 = load ptr, ptr %4, align 8, !tbaa !16
  %37 = call i32 (ptr, ...) @printf(ptr noundef @.str.233, ptr noundef %36)
  call void @exit(i32 noundef 1) #13
  unreachable

38:                                               ; preds = %32, %8
  call void @llvm.lifetime.end.p0(i64 8, ptr %2) #11
  %39 = load i32, ptr %1, align 4
  ret i32 %39
}