; Function Attrs: nounwind uwtable
define internal range(i32 0, 2) i32 @test_initconfig_module() #0 {
  %1 = alloca ptr, align 8
  %2 = tail call ptr @PyInitConfig_Create() #20
  %3 = icmp eq ptr %2, null
  br i1 %3, label %4, label %5

4:                                                ; preds = %0
  %puts = tail call i32 @puts(ptr nonnull dereferenceable(1) @str.24)
  br label %25

5:                                                ; preds = %0
  %6 = tail call i32 @PyInitConfig_SetStr(ptr noundef nonnull %2, ptr noundef nonnull @.str.227, ptr noundef nonnull @.str.228) #20
  %7 = icmp slt i32 %6, 0
  br i1 %7, label %21, label %8

8:                                                ; preds = %5
  %9 = tail call i32 @PyInitConfig_AddModule(ptr noundef nonnull %2, ptr noundef nonnull @.str.279, ptr noundef nonnull @init_my_test_extension) #20
  %10 = icmp slt i32 %9, 0
  br i1 %10, label %21, label %11

11:                                               ; preds = %8
  %12 = tail call i32 @Py_InitializeFromInitConfig(ptr noundef nonnull %2) #20
  %13 = icmp slt i32 %12, 0
  br i1 %13, label %21, label %14

14:                                               ; preds = %11
  tail call void @PyInitConfig_Free(ptr noundef nonnull %2) #20
  %15 = tail call i32 @PyRun_SimpleStringFlags(ptr noundef nonnull @.str.280, ptr noundef null) #20
  %16 = icmp slt i32 %15, 0
  br i1 %16, label %17, label %20

17:                                               ; preds = %14
  %18 = load ptr, ptr @stderr, align 8, !tbaa !16
  %19 = tail call i64 @fwrite(ptr nonnull @.str.281, i64 35, i64 1, ptr %18) #23
  tail call void @exit(i32 noundef 1) #22
  unreachable

20:                                               ; preds = %14
  tail call void @Py_Finalize() #20
  br label %25

21:                                               ; preds = %11, %8, %5
  call void @llvm.lifetime.start.p0(i64 8, ptr nonnull %1) #20
  %22 = call i32 @PyInitConfig_GetError(ptr noundef nonnull %2, ptr noundef nonnull %1) #20
  %23 = load ptr, ptr %1, align 8, !tbaa !11
  %24 = call i32 (ptr, ...) @printf(ptr noundef nonnull dereferenceable(1) @.str.233, ptr noundef %23)
  call void @exit(i32 noundef 1) #22
  unreachable

25:                                               ; preds = %20, %4
  %.0 = phi i32 [ 1, %4 ], [ 0, %20 ]
  ret i32 %.0
}